; Function Attrs: nounwind uwtable
define dso_local i64 @format_type(ptr noundef captures(none) %0) local_unnamed_addr #0 {
  %2 = getelementptr inbounds nuw i8, ptr %0, i64 40
  %3 = load i8, ptr %2, align 8, !range !4, !noundef !5
  %4 = trunc nuw i8 %3 to i1
  br i1 %4, label %5, label %7

5:                                                ; preds = %1
  %6 = getelementptr inbounds nuw i8, ptr %0, i64 28
  store i8 1, ptr %6, align 4
  br label %22

7:                                                ; preds = %1
  %8 = getelementptr inbounds nuw i8, ptr %0, i64 32
  %9 = load i64, ptr %8, align 8
  %10 = trunc i64 %9 to i32
  %11 = getelementptr inbounds nuw i8, ptr %0, i64 56
  %12 = load i8, ptr %11, align 8, !range !4, !noundef !5
  %13 = trunc nuw i8 %12 to i1
  br i1 %13, label %.split13, label %.split

.split13:                                         ; preds = %7
  %14 = tail call ptr @format_type_extended(i32 noundef %10, i32 noundef -1, i16 noundef zeroext 2)
  br label %19

.split:                                           ; preds = %7
  %15 = getelementptr inbounds nuw i8, ptr %0, i64 48
  %16 = load i64, ptr %15, align 8
  %17 = trunc i64 %16 to i32
  %18 = tail call ptr @format_type_extended(i32 noundef %10, i32 noundef %17, i16 noundef zeroext 3)
  br label %19

19:                                               ; preds = %.split, %.split13
  %phi.call = phi ptr [ %18, %.split ], [ %14, %.split13 ]
  %20 = tail call ptr @cstring_to_text(ptr noundef %phi.call) #7
  %21 = ptrtoint ptr %20 to i64
  br label %22

22:                                               ; preds = %19, %5
  %.010 = phi i64 [ 0, %5 ], [ %21, %19 ]
  ret i64 %.010
}